target datalayout = "e-m:e-p270:32:32-p271:32:32-p272:64:64-i64:64-i128:128-f80:128-n8:16:32:64-S128"
target triple = "x86_64-pc-linux-gnu"

%union.pthread_mutex_t = type { %struct.__pthread_mutex_s }
%struct.__pthread_mutex_s = type { i32, i32, i32, i32, i32, i16, i16, %struct.__pthread_internal_list }
%struct.__pthread_internal_list = type { ptr, ptr }
%union.pthread_cond_t = type { %struct.__pthread_cond_s }
%struct.__pthread_cond_s = type { %union.__atomic_wide_counter, %union.__atomic_wide_counter, [2 x i32], [2 x i32], i32, i32, [2 x i32] }
%union.__atomic_wide_counter = type { i64 }
%struct.redisServer = type { i32, i64, ptr, ptr, ptr, i32, i32, i32, i32, i32, ptr, ptr, ptr, ptr, ptr, i32, i32, i32, i32, i64, i32, i32, i32, i32, ptr, i32, i32, [41 x i8], i32, i64, i32, i32, i32, ptr, ptr, i32, i32, i64, ptr, ptr, ptr, ptr, [2 x i32], i32, i32, i32, i32, i32, i32, [16 x ptr], i32, ptr, ptr, i32, [8 x %struct.connListener], i32, %struct.connListener, ptr, ptr, ptr, ptr, ptr, ptr, ptr, ptr, ptr, ptr, i32, ptr, i32, ptr, [3 x %struct.pause_event], [256 x i8], ptr, i64, i32, i32, [128 x i32], i32, i32, i64, i32, i32, i32, i32, i32, i64, i64, i64, i64, i64, i64, i64, i64, i64, i64, double, i64, i64, i64, i64, i64, i64, i64, i64, i64, i64, i64, i64, i64, i64, i64, i64, i64, i64, i64, i64, i64, double, i64, i64, i64, i64, i64, ptr, i64, i64, i64, %struct.malloc_stats, i64, i64, i64, i64, i64, i64, i64, i64, i64, i64, i64, i64, double, [4 x i64], i64, i64, i64, i64, [128 x i64], [128 x i64], i64, i64, [7 x %struct.anon.0], i64, i64, i64, i64, i64, i64, [4 x %struct.durationStats], i32, i32, i32, i32, i32, i32, i32, i32, i32, i32, i32, i32, i64, i32, i32, i32, i32, i64, i64, i32, i32, i32, i32, i32, ptr, [3 x %struct.clientBufferLimitsConfig], i32, i32, i32, ptr, i32, i32, i32, i32, i32, i32, ptr, ptr, i32, i32, i64, i64, i64, i64, i64, i32, i32, ptr, i32, i32, i64, i64, i64, i64, i64, i32, i32, i64, i32, i32, i32, i32, i32, i32, i32, i32, ptr, i32, i64, i64, i64, i64, i32, ptr, i32, ptr, i32, i32, i32, i64, i64, i64, i64, i32, i32, i32, i32, i32, i32, ptr, i32, i32, ptr, i32, i32, i32, [2 x i32], i32, %struct.redisOpArray, i32, ptr, i32, ptr, i32, i32, i32, i32, i32, i32, i32, [41 x i8], [41 x i8], i64, i64, i64, i64, i32, i32, ptr, i64, i64, %struct.replDataBuf, i64, i64, i32, i32, i32, i32, i32, i32, i32, i32, i32, i64, ptr, i64, ptr, ptr, ptr, i32, i32, ptr, ptr, i32, i32, i32, i64, i64, i64, i64, ptr, ptr, i32, ptr, i64, i32, i32, i32, i64, i32, i32, i32, i32, ptr, i32, i32, [41 x i8], i64, i32, ptr, i32, i32, i64, i64, i32, i32, i32, i32, i32, i64, [3 x i32], i32, i32, i32, [10 x i32], ptr, ptr, i32, i64, ptr, ptr, i32, i32, i32, i32, i64, i64, i64, i64, i64, i64, i64, i64, i64, i64, i32, i32, i64, i64, i32, i64, i64, i64, i64, i64, ptr, ptr, i32, ptr, i32, i32, i32, i32, i64, i64, ptr, ptr, i32, i32, i32, i32, i32, ptr, ptr, ptr, i32, i32, i32, i32, i32, i32, i32, i64, i32, i32, i64, i32, i32, i32, i32, i32, i32, i32, i64, ptr, ptr, i64, ptr, i32, %struct.aclInfo, i32, i64, i32, i32, i32, %struct.redisTLSContextConfig, ptr, ptr, ptr, ptr, ptr, i64, i32, ptr, i32, i32, i32, i64, i32, ptr }
%struct.connListener = type { [16 x i32], i32, ptr, i32, i32, ptr, ptr }
%struct.pause_event = type { i32, i64 }
%struct.malloc_stats = type { i64, i64, i64, i64, i64, i64, i64, i64, i64, i64, i64 }
%struct.anon.0 = type { i64, i64, [16 x i64], i32 }
%struct.durationStats = type { i64, i64, i64 }
%struct.clientBufferLimitsConfig = type { i64, i64, i64 }
%struct.redisOpArray = type { ptr, i32, i32 }
%struct.replDataBuf = type { ptr, i64, i64, i64, i64 }
%struct.aclInfo = type { i64, i64, i64, i64 }
%struct.redisTLSContextConfig = type { ptr, ptr, ptr, ptr, ptr, ptr, ptr, ptr, ptr, ptr, ptr, ptr, i32, i32, i32, i32 }
%union.pthread_attr_t = type { i64, [48 x i8] }

@bio_mutex = internal global [3 x %union.pthread_mutex_t] zeroinitializer, align 16
@bio_newjob_cond = internal global [3 x %union.pthread_cond_t] zeroinitializer, align 16
@bio_jobs = internal global [3 x ptr] zeroinitializer, align 16
@bio_comp_list = internal global ptr null, align 8
@bio_mutex_comp = internal global %union.pthread_mutex_t zeroinitializer, align 8
@job_comp_pipe = internal global [2 x i32] zeroinitializer, align 4
@server = external global %struct.redisServer, align 8
@.str = private unnamed_addr constant [41 x i8] c"Can't create the pipe for bio thread: %s\00", align 1
@.str.1 = private unnamed_addr constant [6 x i8] c"bio.c\00", align 1
@.str.2 = private unnamed_addr constant [55 x i8] c"Error registering the readable event for the bio pipe.\00", align 1
@.str.3 = private unnamed_addr constant [59 x i8] c"Fatal: Can't initialize Background Jobs. Error message: %s\00", align 1
@bio_threads = internal global [3 x i64] zeroinitializer, align 16

; Function Attrs: nounwind uwtable
define dso_local void @bioInit() #0 {
  %1 = alloca %union.pthread_attr_t, align 8
  %2 = alloca i64, align 8
  %3 = alloca i64, align 8
  %4 = alloca i64, align 8
  %5 = alloca ptr, align 8
  call void @llvm.lifetime.start.p0(i64 56, ptr %1) #9
  call void @llvm.lifetime.start.p0(i64 8, ptr %2) #9
  call void @llvm.lifetime.start.p0(i64 8, ptr %3) #9
  call void @llvm.lifetime.start.p0(i64 8, ptr %4) #9
  store i64 0, ptr %4, align 8, !tbaa !5
  br label %6

6:                                                ; preds = %19, %0
  %7 = load i64, ptr %4, align 8, !tbaa !5
  %8 = icmp ult i64 %7, 3
  br i1 %8, label %9, label %22

9:                                                ; preds = %6
  %10 = load i64, ptr %4, align 8, !tbaa !5
  %11 = getelementptr inbounds nuw [3 x %union.pthread_mutex_t], ptr @bio_mutex, i64 0, i64 %10
  %12 = call i32 @pthread_mutex_init(ptr noundef %11, ptr noundef null) #9
  %13 = load i64, ptr %4, align 8, !tbaa !5
  %14 = getelementptr inbounds nuw [3 x %union.pthread_cond_t], ptr @bio_newjob_cond, i64 0, i64 %13
  %15 = call i32 @pthread_cond_init(ptr noundef %14, ptr noundef null) #9
  %16 = call ptr @listCreate()
  %17 = load i64, ptr %4, align 8, !tbaa !5
  %18 = getelementptr inbounds nuw [3 x ptr], ptr @bio_jobs, i64 0, i64 %17
  store ptr %16, ptr %18, align 8, !tbaa !9
  br label %19

19:                                               ; preds = %9
  %20 = load i64, ptr %4, align 8, !tbaa !5
  %21 = add i64 %20, 1
  store i64 %21, ptr %4, align 8, !tbaa !5
  br label %6, !llvm.loop !12

22:                                               ; preds = %6
  %23 = call ptr @listCreate()
  store ptr %23, ptr @bio_comp_list, align 8, !tbaa !9
  %24 = call i32 @pthread_mutex_init(ptr noundef @bio_mutex_comp, ptr noundef null) #9
  %25 = call i32 @anetPipe(ptr noundef @job_comp_pipe, i32 noundef 526336, i32 noundef 526336)
  %26 = icmp eq i32 %25, -1
  br i1 %26, label %27, label %38

27:                                               ; preds = %22
  br label %28

28:                                               ; preds = %27
  %29 = load i32, ptr getelementptr inbounds nuw (%struct.redisServer, ptr @server, i32 0, i32 159), align 8, !tbaa !14
  %30 = icmp slt i32 3, %29
  br i1 %30, label %31, label %32

31:                                               ; preds = %28
  br label %37

32:                                               ; preds = %28
  %33 = call ptr @__errno_location() #10
  %34 = load i32, ptr %33, align 4, !tbaa !42
  %35 = call ptr @strerror(i32 noundef %34) #9
  call void (i32, ptr, ...) @_serverLog(i32 noundef 3, ptr noundef @.str, ptr noundef %35)
  br label %36

36:                                               ; preds = %32
  br label %37

37:                                               ; preds = %36, %31
  call void @exit(i32 noundef 1) #11
  unreachable

38:                                               ; preds = %22
  %39 = load ptr, ptr getelementptr inbounds nuw (%struct.redisServer, ptr @server, i32 0, i32 13), align 8, !tbaa !43
  %40 = load i32, ptr @job_comp_pipe, align 4, !tbaa !42
  %41 = call i32 @aeCreateFileEvent(ptr noundef %39, i32 noundef %40, i32 noundef 1, ptr noundef @bioPipeReadJobCompList, ptr noundef null)
  %42 = icmp eq i32 %41, -1
  br i1 %42, label %43, label %44

43:                                               ; preds = %38
  call void (ptr, i32, ptr, ...) @_serverPanic(ptr noundef @.str.1, i32 noundef 157, ptr noundef @.str.2)
  call void @abort() #11
  unreachable

44:                                               ; preds = %38
  %45 = call i32 @pthread_attr_init(ptr noundef %1) #9
  %46 = call i32 @pthread_attr_getstacksize(ptr noundef %1, ptr noundef %3) #9
  %47 = load i64, ptr %3, align 8, !tbaa !5
  %48 = icmp ne i64 %47, 0
  br i1 %48, label %50, label %49

49:                                               ; preds = %44
  store i64 1, ptr %3, align 8, !tbaa !5
  br label %50

50:                                               ; preds = %49, %44
  br label %51

51:                                               ; preds = %54, %50
  %52 = load i64, ptr %3, align 8, !tbaa !5
  %53 = icmp ult i64 %52, 4194304
  br i1 %53, label %54, label %57

54:                                               ; preds = %51
  %55 = load i64, ptr %3, align 8, !tbaa !5
  %56 = mul i64 %55, 2
  store i64 %56, ptr %3, align 8, !tbaa !5
  br label %51, !llvm.loop !44

57:                                               ; preds = %51
  %58 = load i64, ptr %3, align 8, !tbaa !5
  %59 = call i32 @pthread_attr_setstacksize(ptr noundef %1, i64 noundef %58) #9
  store i64 0, ptr %4, align 8, !tbaa !5
  br label %60

60:                                               ; preds = %84, %57
  %61 = load i64, ptr %4, align 8, !tbaa !5
  %62 = icmp ult i64 %61, 3
  br i1 %62, label %63, label %87

63:                                               ; preds = %60
  call void @llvm.lifetime.start.p0(i64 8, ptr %5) #9
  %64 = load i64, ptr %4, align 8, !tbaa !5
  %65 = inttoptr i64 %64 to ptr
  store ptr %65, ptr %5, align 8, !tbaa !45
  %66 = load ptr, ptr %5, align 8, !tbaa !45
  %67 = call i32 @pthread_create(ptr noundef %2, ptr noundef %1, ptr noundef @bioProcessBackgroundJobs, ptr noundef %66) #9
  %68 = icmp ne i32 %67, 0
  br i1 %68, label %69, label %80

69:                                               ; preds = %63
  br label %70

70:                                               ; preds = %69
  %71 = load i32, ptr getelementptr inbounds nuw (%struct.redisServer, ptr @server, i32 0, i32 159), align 8, !tbaa !14
  %72 = icmp slt i32 3, %71
  br i1 %72, label %73, label %74

73:                                               ; preds = %70
  br label %79

74:                                               ; preds = %70
  %75 = call ptr @__errno_location() #10
  %76 = load i32, ptr %75, align 4, !tbaa !42
  %77 = call ptr @strerror(i32 noundef %76) #9
  call void (i32, ptr, ...) @_serverLog(i32 noundef 3, ptr noundef @.str.3, ptr noundef %77)
  br label %78

78:                                               ; preds = %74
  br label %79

79:                                               ; preds = %78, %73
  call void @exit(i32 noundef 1) #11
  unreachable

80:                                               ; preds = %63
  %81 = load i64, ptr %2, align 8, !tbaa !5
  %82 = load i64, ptr %4, align 8, !tbaa !5
  %83 = getelementptr inbounds nuw [3 x i64], ptr @bio_threads, i64 0, i64 %82
  store i64 %81, ptr %83, align 8, !tbaa !5
  call void @llvm.lifetime.end.p0(i64 8, ptr %5) #9
  br label %84

84:                                               ; preds = %80
  %85 = load i64, ptr %4, align 8, !tbaa !5
  %86 = add i64 %85, 1
  store i64 %86, ptr %4, align 8, !tbaa !5
  br label %60, !llvm.loop !46

87:                                               ; preds = %60
  call void @llvm.lifetime.end.p0(i64 8, ptr %4) #9
  call void @llvm.lifetime.end.p0(i64 8, ptr %3) #9
  call void @llvm.lifetime.end.p0(i64 8, ptr %2) #9
  call void @llvm.lifetime.end.p0(i64 56, ptr %1) #9
  ret void
}