; Function Attrs: nounwind uwtable
define dso_local void @bioInit() local_unnamed_addr #0 {
  %1 = alloca %union.pthread_attr_t, align 8
  %2 = alloca i64, align 8
  %3 = alloca i64, align 8
  call void @llvm.lifetime.start.p0(i64 56, ptr nonnull %1) #11
  call void @llvm.lifetime.start.p0(i64 8, ptr nonnull %2) #11
  call void @llvm.lifetime.start.p0(i64 8, ptr nonnull %3) #11
  br label %4

4:                                                ; preds = %0, %4
  %.012 = phi i64 [ 0, %0 ], [ %11, %4 ]
  %5 = getelementptr inbounds nuw [3 x %union.pthread_mutex_t], ptr @bio_mutex, i64 0, i64 %.012
  %6 = tail call i32 @pthread_mutex_init(ptr noundef nonnull %5, ptr noundef null) #11
  %7 = getelementptr inbounds nuw [3 x %union.pthread_cond_t], ptr @bio_newjob_cond, i64 0, i64 %.012
  %8 = tail call i32 @pthread_cond_init(ptr noundef nonnull %7, ptr noundef null) #11
  %9 = tail call ptr @listCreate() #11
  %10 = getelementptr inbounds nuw [3 x ptr], ptr @bio_jobs, i64 0, i64 %.012
  store ptr %9, ptr %10, align 8, !tbaa !5
  %11 = add nuw nsw i64 %.012, 1
  %exitcond.not = icmp eq i64 %11, 3
  br i1 %exitcond.not, label %12, label %4, !llvm.loop !10

12:                                               ; preds = %4
  %13 = tail call ptr @listCreate() #11
  store ptr %13, ptr @bio_comp_list, align 8, !tbaa !5
  %14 = tail call i32 @pthread_mutex_init(ptr noundef nonnull @bio_mutex_comp, ptr noundef null) #11
  %15 = tail call i32 @anetPipe(ptr noundef nonnull @job_comp_pipe, i32 noundef 526336, i32 noundef 526336) #11
  %16 = icmp eq i32 %15, -1
  br i1 %16, label %17, label %25

17:                                               ; preds = %12
  %18 = load i32, ptr getelementptr inbounds nuw (i8, ptr @server, i64 6288), align 8, !tbaa !12
  %19 = icmp sgt i32 %18, 3
  br i1 %19, label %24, label %20

20:                                               ; preds = %17
  %21 = tail call ptr @__errno_location() #12
  %22 = load i32, ptr %21, align 4, !tbaa !41
  %23 = tail call ptr @strerror(i32 noundef %22) #11
  tail call void (i32, ptr, ...) @_serverLog(i32 noundef 3, ptr noundef nonnull @.str, ptr noundef %23) #11
  br label %24

24:                                               ; preds = %17, %20
  tail call void @exit(i32 noundef 1) #13
  unreachable

25:                                               ; preds = %12
  %26 = load ptr, ptr getelementptr inbounds nuw (i8, ptr @server, i64 88), align 8, !tbaa !42
  %27 = load i32, ptr @job_comp_pipe, align 4, !tbaa !41
  %28 = tail call i32 @aeCreateFileEvent(ptr noundef %26, i32 noundef %27, i32 noundef 1, ptr noundef nonnull @bioPipeReadJobCompList, ptr noundef null) #11
  %29 = icmp eq i32 %28, -1
  br i1 %29, label %30, label %31

30:                                               ; preds = %25
  tail call void (ptr, i32, ptr, ...) @_serverPanic(ptr noundef nonnull @.str.1, i32 noundef 157, ptr noundef nonnull @.str.2) #11
  tail call void @abort() #14
  unreachable

31:                                               ; preds = %25
  %32 = call i32 @pthread_attr_init(ptr noundef nonnull %1) #11
  %33 = call i32 @pthread_attr_getstacksize(ptr noundef nonnull %1, ptr noundef nonnull %3) #11
  %34 = load i64, ptr %3, align 8, !tbaa !43
  %.not = icmp eq i64 %34, 0
  br i1 %.not, label %.lr.ph.preheader, label %35

35:                                               ; preds = %31
  %36 = icmp ult i64 %34, 4194304
  br i1 %36, label %.lr.ph.preheader, label %40

.lr.ph.preheader:                                 ; preds = %31, %35
  %.ph = phi i64 [ 1, %31 ], [ %34, %35 ]
  br label %.lr.ph

.lr.ph:                                           ; preds = %.lr.ph.preheader, %.lr.ph
  %37 = phi i64 [ %38, %.lr.ph ], [ %.ph, %.lr.ph.preheader ]
  %38 = shl nuw nsw i64 %37, 1
  %39 = icmp samesign ult i64 %37, 2097152
  br i1 %39, label %.lr.ph, label %._crit_edge, !llvm.loop !44

._crit_edge:                                      ; preds = %.lr.ph
  store i64 %38, ptr %3, align 8, !tbaa !43
  br label %40

40:                                               ; preds = %._crit_edge, %35
  %.lcssa = phi i64 [ %38, %._crit_edge ], [ %34, %35 ]
  %41 = call i32 @pthread_attr_setstacksize(ptr noundef nonnull %1, i64 noundef %.lcssa) #11
  br label %42

42:                                               ; preds = %40, %53
  %.114 = phi i64 [ 0, %40 ], [ %56, %53 ]
  %43 = inttoptr i64 %.114 to ptr
  %44 = call i32 @pthread_create(ptr noundef nonnull %2, ptr noundef nonnull %1, ptr noundef nonnull @bioProcessBackgroundJobs, ptr noundef %43) #11
  %.not11 = icmp eq i32 %44, 0
  br i1 %.not11, label %53, label %45

45:                                               ; preds = %42
  %46 = load i32, ptr getelementptr inbounds nuw (i8, ptr @server, i64 6288), align 8, !tbaa !12
  %47 = icmp sgt i32 %46, 3
  br i1 %47, label %52, label %48

48:                                               ; preds = %45
  %49 = tail call ptr @__errno_location() #12
  %50 = load i32, ptr %49, align 4, !tbaa !41
  %51 = call ptr @strerror(i32 noundef %50) #11
  call void (i32, ptr, ...) @_serverLog(i32 noundef 3, ptr noundef nonnull @.str.3, ptr noundef %51) #11
  br label %52

52:                                               ; preds = %45, %48
  call void @exit(i32 noundef 1) #13
  unreachable

53:                                               ; preds = %42
  %54 = load i64, ptr %2, align 8, !tbaa !43
  %55 = getelementptr inbounds nuw [3 x i64], ptr @bio_threads, i64 0, i64 %.114
  store i64 %54, ptr %55, align 8, !tbaa !43
  %56 = add nuw nsw i64 %.114, 1
  %exitcond16.not = icmp eq i64 %56, 3
  br i1 %exitcond16.not, label %57, label %42, !llvm.loop !45

57:                                               ; preds = %53
  call void @llvm.lifetime.end.p0(i64 8, ptr nonnull %3) #11
  call void @llvm.lifetime.end.p0(i64 8, ptr nonnull %2) #11
  call void @llvm.lifetime.end.p0(i64 56, ptr nonnull %1) #11
  ret void
}